target datalayout = "e-m:e-p270:32:32-p271:32:32-p272:64:64-i64:64-i128:128-f80:128-n8:16:32:64-S128"
target triple = "x86_64-unknown-linux-gnu"

%"class.icu_75::RuleBasedBreakIterator" = type <{ %"class.icu_75::BreakIterator.base", i8, %struct.UText, ptr, i32, i32, i32, [4 x i8], ptr, ptr, ptr, ptr, i32, [4 x i8], ptr, %"class.icu_75::UCharCharacterIterator", i8, [7 x i8], ptr, i8, [7 x i8] }>
%"class.icu_75::BreakIterator.base" = type <{ %"class.icu_75::UObject", [157 x i8], [157 x i8], [157 x i8] }>
%"class.icu_75::UObject" = type { ptr }
%struct.UText = type { i32, i32, i32, i32, i64, i32, i32, i64, i32, i32, ptr, ptr, ptr, ptr, ptr, ptr, ptr, ptr, i64, i32, i32, i64, i32, i32 }
%"class.icu_75::UCharCharacterIterator" = type { %"class.icu_75::CharacterIterator", ptr }
%"class.icu_75::CharacterIterator" = type { %"class.icu_75::ForwardCharacterIterator", i32, i32, i32, i32 }
%"class.icu_75::ForwardCharacterIterator" = type { %"class.icu_75::UObject" }

; Function Attrs: mustprogress uwtable
define noundef signext i8 @_ZN6icu_7522RuleBasedBreakIterator10isBoundaryEi(ptr noundef nonnull align 8 dereferenceable(745) %this, i32 noundef %offset) unnamed_addr #1 align 2 {
entry:
  %retval = alloca i8, align 1
  %this.addr = alloca ptr, align 8
  %offset.addr = alloca i32, align 4
  %adjustedOffset = alloca i32, align 4
  %result = alloca i8, align 1
  %status = alloca i32, align 4
  store ptr %this, ptr %this.addr, align 8
  store i32 %offset, ptr %offset.addr, align 4
  %this1 = load ptr, ptr %this.addr, align 8
  %0 = load i32, ptr %offset.addr, align 4
  %cmp = icmp slt i32 %0, 0
  br i1 %cmp, label %if.then, label %if.end

if.then:                                          ; preds = %entry
  %vtable = load ptr, ptr %this1, align 8
  %vfn = getelementptr inbounds ptr, ptr %vtable, i64 10
  %1 = load ptr, ptr %vfn, align 8
  %call = call noundef i32 %1(ptr noundef nonnull align 8 dereferenceable(745) %this1)
  store i8 0, ptr %retval, align 1
  br label %return

if.end:                                           ; preds = %entry
  %fText = getelementptr inbounds %"class.icu_75::RuleBasedBreakIterator", ptr %this1, i32 0, i32 2
  %2 = load i32, ptr %offset.addr, align 4
  %conv = sext i32 %2 to i64
  call void @utext_setNativeIndex_75(ptr noundef %fText, i64 noundef %conv)
  %fText2 = getelementptr inbounds %"class.icu_75::RuleBasedBreakIterator", ptr %this1, i32 0, i32 2
  %call3 = call i64 @utext_getNativeIndex_75(ptr noundef %fText2)
  %conv4 = trunc i64 %call3 to i32
  store i32 %conv4, ptr %adjustedOffset, align 4
  store i8 0, ptr %result, align 1
  store i32 0, ptr %status, align 4
  %fBreakCache = getelementptr inbounds %"class.icu_75::RuleBasedBreakIterator", ptr %this1, i32 0, i32 8
  %3 = load ptr, ptr %fBreakCache, align 8
  %4 = load i32, ptr %adjustedOffset, align 4
  %call5 = call noundef signext i8 @_ZN6icu_7522RuleBasedBreakIterator10BreakCache4seekEi(ptr noundef nonnull align 8 dereferenceable(832) %3, i32 noundef %4)
  %tobool = icmp ne i8 %call5, 0
  br i1 %tobool, label %if.then9, label %lor.lhs.false

lor.lhs.false:                                    ; preds = %if.end
  %fBreakCache6 = getelementptr inbounds %"class.icu_75::RuleBasedBreakIterator", ptr %this1, i32 0, i32 8
  %5 = load ptr, ptr %fBreakCache6, align 8
  %6 = load i32, ptr %adjustedOffset, align 4
  %call7 = call noundef signext i8 @_ZN6icu_7522RuleBasedBreakIterator10BreakCache12populateNearEiR10UErrorCode(ptr noundef nonnull align 8 dereferenceable(832) %5, i32 noundef %6, ptr noundef nonnull align 4 dereferenceable(4) %status)
  %tobool8 = icmp ne i8 %call7, 0
  br i1 %tobool8, label %if.then9, label %if.end13

if.then9:                                         ; preds = %lor.lhs.false, %if.end
  %fBreakCache10 = getelementptr inbounds %"class.icu_75::RuleBasedBreakIterator", ptr %this1, i32 0, i32 8
  %7 = load ptr, ptr %fBreakCache10, align 8
  %call11 = call noundef i32 @_ZN6icu_7522RuleBasedBreakIterator10BreakCache7currentEv(ptr noundef nonnull align 8 dereferenceable(832) %7)
  %8 = load i32, ptr %offset.addr, align 4
  %cmp12 = icmp eq i32 %call11, %8
  %frombool = zext i1 %cmp12 to i8
  store i8 %frombool, ptr %result, align 1
  br label %if.end13

if.end13:                                         ; preds = %if.then9, %lor.lhs.false
  %9 = load i8, ptr %result, align 1
  %tobool14 = trunc i8 %9 to i1
  br i1 %tobool14, label %land.lhs.true, label %if.end22

land.lhs.true:                                    ; preds = %if.end13
  %10 = load i32, ptr %adjustedOffset, align 4
  %11 = load i32, ptr %offset.addr, align 4
  %cmp15 = icmp slt i32 %10, %11
  br i1 %cmp15, label %land.lhs.true16, label %if.end22

land.lhs.true16:                                  ; preds = %land.lhs.true
  %fText17 = getelementptr inbounds %"class.icu_75::RuleBasedBreakIterator", ptr %this1, i32 0, i32 2
  %12 = load i32, ptr %offset.addr, align 4
  %conv18 = sext i32 %12 to i64
  %call19 = call i32 @utext_char32At_75(ptr noundef %fText17, i64 noundef %conv18)
  %cmp20 = icmp eq i32 %call19, -1
  br i1 %cmp20, label %if.then21, label %if.end22

if.then21:                                        ; preds = %land.lhs.true16
  store i8 0, ptr %retval, align 1
  br label %return

if.end22:                                         ; preds = %land.lhs.true16, %land.lhs.true, %if.end13
  %13 = load i8, ptr %result, align 1
  %tobool23 = trunc i8 %13 to i1
  br i1 %tobool23, label %if.end28, label %if.then24

if.then24:                                        ; preds = %if.end22
  %vtable25 = load ptr, ptr %this1, align 8
  %vfn26 = getelementptr inbounds ptr, ptr %vtable25, i64 13
  %14 = load ptr, ptr %vfn26, align 8
  %call27 = call noundef i32 %14(ptr noundef nonnull align 8 dereferenceable(745) %this1)
  br label %if.end28

if.end28:                                         ; preds = %if.then24, %if.end22
  %15 = load i8, ptr %result, align 1
  %tobool29 = trunc i8 %15 to i1
  %conv30 = zext i1 %tobool29 to i8
  store i8 %conv30, ptr %retval, align 1
  br label %return

return:                                           ; preds = %if.end28, %if.then21, %if.then
  %16 = load i8, ptr %retval, align 1
  ret i8 %16
}