; Function Attrs: mustprogress uwtable
define noundef signext i8 @_ZN6icu_7522RuleBasedBreakIterator10isBoundaryEi(ptr noundef nonnull align 8 dereferenceable(745) %this, i32 noundef %offset) unnamed_addr #1 align 2 {
entry:
  %status = alloca i32, align 4
  %cmp = icmp slt i32 %offset, 0
  br i1 %cmp, label %if.then, label %if.end

if.then:                                          ; preds = %entry
  %vtable = load ptr, ptr %this, align 8
  %vfn = getelementptr inbounds i8, ptr %vtable, i64 80
  %0 = load ptr, ptr %vfn, align 8
  %call = tail call noundef i32 %0(ptr noundef nonnull align 8 dereferenceable(745) %this)
  br label %return

if.end:                                           ; preds = %entry
  %fText = getelementptr inbounds i8, ptr %this, i64 480
  %conv = zext nneg i32 %offset to i64
  tail call void @utext_setNativeIndex_75(ptr noundef nonnull %fText, i64 noundef %conv)
  %call3 = tail call i64 @utext_getNativeIndex_75(ptr noundef nonnull %fText)
  %conv4 = trunc i64 %call3 to i32
  store i32 0, ptr %status, align 4
  %fBreakCache = getelementptr inbounds i8, ptr %this, i64 648
  %1 = load ptr, ptr %fBreakCache, align 8
  %call5 = tail call noundef signext i8 @_ZN6icu_7522RuleBasedBreakIterator10BreakCache4seekEi(ptr noundef nonnull align 8 dereferenceable(832) %1, i32 noundef %conv4)
  %tobool.not = icmp eq i8 %call5, 0
  br i1 %tobool.not, label %lor.lhs.false, label %if.end13

lor.lhs.false:                                    ; preds = %if.end
  %2 = load ptr, ptr %fBreakCache, align 8
  %call7 = call noundef signext i8 @_ZN6icu_7522RuleBasedBreakIterator10BreakCache12populateNearEiR10UErrorCode(ptr noundef nonnull align 8 dereferenceable(832) %2, i32 noundef %conv4, ptr noundef nonnull align 4 dereferenceable(4) %status)
  %tobool8.not = icmp eq i8 %call7, 0
  br i1 %tobool8.not, label %if.then24, label %if.end13

if.end13:                                         ; preds = %if.end, %lor.lhs.false
  %3 = load ptr, ptr %fBreakCache, align 8
  %call11 = call noundef i32 @_ZN6icu_7522RuleBasedBreakIterator10BreakCache7currentEv(ptr noundef nonnull align 8 dereferenceable(832) %3)
  %cmp12 = icmp eq i32 %call11, %offset
  %cmp15 = icmp slt i32 %conv4, %offset
  %or.cond = and i1 %cmp15, %cmp12
  br i1 %or.cond, label %land.lhs.true16, label %if.end22

land.lhs.true16:                                  ; preds = %if.end13
  %call19 = call i32 @utext_char32At_75(ptr noundef nonnull %fText, i64 noundef %conv)
  %cmp20 = icmp ne i32 %call19, -1
  %.mux = zext i1 %cmp20 to i8
  br label %return

if.end22:                                         ; preds = %if.end13
  br i1 %cmp12, label %return, label %if.then24

if.then24:                                        ; preds = %lor.lhs.false, %if.end22
  %vtable25 = load ptr, ptr %this, align 8
  %vfn26 = getelementptr inbounds i8, ptr %vtable25, i64 104
  %4 = load ptr, ptr %vfn26, align 8
  %call27 = call noundef i32 %4(ptr noundef nonnull align 8 dereferenceable(745) %this)
  br label %return

return:                                           ; preds = %land.lhs.true16, %if.end22, %if.then24, %if.then
  %retval.0 = phi i8 [ 0, %if.then ], [ %.mux, %land.lhs.true16 ], [ 0, %if.then24 ], [ 1, %if.end22 ]
  ret i8 %retval.0
}